(lp0
S'2010-03-27'
p1
aS'2010-03-28'
p2
aS'2010-03-30'
p3
aS'2010-04-02'
p4
aS'2010-04-03'
p5
aS'2010-04-04'
p6
aS'2010-04-06'
p7
aS'2010-04-07'
p8
aS'2010-04-08'
p9
aS'2010-04-09'
p10
aS'2010-04-10'
p11
aS'2010-04-11'
p12
aS'2010-04-13'
p13
aS'2010-04-14'
p14
aS'2010-04-15'
p15
aS'2010-04-16'
p16
aS'2010-04-17'
p17
aS'2010-04-18'
p18
aS'2010-04-20'
p19
aS'2010-04-21'
p20
aS'2010-04-22'
p21
aS'2010-04-23'
p22
aS'2010-04-24'
p23
aS'2010-04-25'
p24
aS'2010-04-27'
p25
aS'2010-04-29'
p26
aS'2010-04-30'
p27
aS'2010-05-01'
p28
aS'2010-05-02'
p29
aS'2010-05-04'
p30
aS'2010-05-05'
p31
aS'2010-05-06'
p32
aS'2010-05-07'
p33
aS'2010-05-08'
p34
aS'2010-05-09'
p35
aS'2010-05-11'
p36
aS'2010-05-12'
p37
aS'2010-05-13'
p38
aS'2010-05-14'
p39
aS'2010-05-15'
p40
aS'2010-05-16'
p41
aS'2010-05-19'
p42
aS'2010-05-20'
p43
aS'2010-05-21'
p44
aS'2010-05-25'
p45
aS'2010-05-26'
p46
aS'2010-05-27'
p47
aS'2010-05-28'
p48
aS'2010-05-29'
p49
aS'2010-05-30'
p50
aS'2010-06-01'
p51
aS'2010-06-02'
p52
aS'2010-06-03'
p53
aS'2010-06-04'
p54
aS'2010-06-05'
p55
aS'2010-06-06'
p56
aS'2010-06-08'
p57
aS'2010-06-09'
p58
aS'2010-06-10'
p59
aS'2010-06-11'
p60
aS'2010-06-12'
p61
aS'2010-06-13'
p62
aS'2010-06-15'
p63
aS'2010-06-16'
p64
aS'2010-06-17'
p65
aS'2010-06-18'
p66
aS'2010-06-19'
p67
aS'2010-06-20'
p68
aS'2010-06-22'
p69
aS'2010-06-23'
p70
aS'2010-06-24'
p71
aS'2010-06-25'
p72
aS'2010-06-26'
p73
aS'2010-06-27'
p74
aS'2010-06-29'
p75
aS'2010-06-30'
p76
aS'2010-07-01'
p77
aS'2010-07-03'
p78
aS'2010-07-04'
p79
aS'2010-07-06'
p80
aS'2010-07-07'
p81
aS'2010-07-08'
p82
aS'2010-07-09'
p83
aS'2010-07-10'
p84
aS'2010-07-13'
p85
aS'2010-07-14'
p86
aS'2010-07-15'
p87
aS'2010-07-17'
p88
aS'2010-07-18'
p89
aS'2010-07-20'
p90
aS'2010-07-21'
p91
aS'2010-07-22'
p92
aS'2010-07-28'
p93
aS'2010-07-29'
p94
aS'2010-07-30'
p95
aS'2010-07-31'
p96
aS'2010-08-01'
p97
aS'2010-08-03'
p98
aS'2010-08-04'
p99
aS'2010-08-05'
p100
aS'2010-08-06'
p101
aS'2010-08-07'
p102
aS'2010-08-08'
p103
aS'2010-08-11'
p104
aS'2010-08-12'
p105
aS'2010-08-13'
p106
aS'2010-08-14'
p107
aS'2010-08-15'
p108
aS'2010-08-17'
p109
aS'2010-08-18'
p110
aS'2010-08-19'
p111
aS'2010-08-20'
p112
aS'2010-08-21'
p113
aS'2010-08-22'
p114
aS'2010-08-25'
p115
aS'2010-08-26'
p116
aS'2010-08-27'
p117
aS'2010-08-28'
p118
aS'2010-08-29'
p119
aS'2010-09-02'
p120
aS'2010-09-03'
p121
aS'2010-09-07'
p122
aS'2010-09-08'
p123
aS'2010-09-09'
p124
aS'2010-09-10'
p125
aS'2010-09-11'
p126
aS'2010-09-14'
p127
aS'2010-09-15'
p128
aS'2010-09-17'
p129
aS'2010-09-18'
p130
aS'2010-09-19'
p131
aS'2010-09-25'
p132
aS'2010-09-26'
p133
aS'2011-04-02'
p134
aS'2011-04-03'
p135
aS'2011-04-05'
p136
aS'2011-04-06'
p137
aS'2011-04-08'
p138
aS'2011-04-09'
p139
aS'2011-04-10'
p140
aS'2011-04-12'
p141
aS'2011-04-13'
p142
aS'2011-04-14'
p143
aS'2011-04-15'
p144
aS'2011-04-16'
p145
aS'2011-04-17'
p146
aS'2011-04-19'
p147
aS'2011-04-20'
p148
aS'2011-04-21'
p149
aS'2011-04-23'
p150
aS'2011-04-24'
p151
aS'2011-04-26'
p152
aS'2011-04-27'
p153
aS'2011-04-28'
p154
aS'2011-04-29'
p155
aS'2011-04-30'
p156
aS'2011-05-01'
p157
aS'2011-05-03'
p158
aS'2011-05-04'
p159
aS'2011-05-05'
p160
aS'2011-05-06'
p161
aS'2011-05-07'
p162
aS'2011-05-08'
p163
aS'2011-05-10'
p164
aS'2011-05-11'
p165
aS'2011-05-12'
p166
aS'2011-05-13'
p167
aS'2011-05-14'
p168
aS'2011-05-15'
p169
aS'2011-05-17'
p170
aS'2011-05-18'
p171
aS'2011-05-19'
p172
aS'2011-05-20'
p173
aS'2011-05-21'
p174
aS'2011-05-22'
p175
aS'2011-05-24'
p176
aS'2011-05-25'
p177
aS'2011-05-26'
p178
aS'2011-05-27'
p179
aS'2011-05-28'
p180
aS'2011-05-29'
p181
aS'2011-05-31'
p182
aS'2011-06-01'
p183
aS'2011-06-02'
p184
aS'2011-06-03'
p185
aS'2011-06-04'
p186
aS'2011-06-05'
p187
aS'2011-06-07'
p188
aS'2011-06-08'
p189
aS'2011-06-09'
p190
aS'2011-06-10'
p191
aS'2011-06-11'
p192
aS'2011-06-12'
p193
aS'2011-06-14'
p194
aS'2011-06-15'
p195
aS'2011-06-16'
p196
aS'2011-06-17'
p197
aS'2011-06-18'
p198
aS'2011-06-19'
p199
aS'2011-06-21'
p200
aS'2011-06-22'
p201
aS'2011-06-23'
p202
aS'2011-06-28'
p203
aS'2011-06-30'
p204
aS'2011-07-01'
p205
aS'2011-07-02'
p206
aS'2011-07-03'
p207
aS'2011-07-05'
p208
aS'2011-07-06'
p209
aS'2011-07-07'
p210
aS'2011-07-09'
p211
aS'2011-07-12'
p212
aS'2011-07-14'
p213
aS'2011-07-17'
p214
aS'2011-07-19'
p215
aS'2011-07-20'
p216
aS'2011-07-21'
p217
aS'2011-07-29'
p218
aS'2011-07-30'
p219
aS'2011-07-31'
p220
aS'2011-08-02'
p221
aS'2011-08-04'
p222
aS'2011-08-05'
p223
aS'2011-08-06'
p224
aS'2011-08-07'
p225
aS'2011-08-10'
p226
aS'2011-08-11'
p227
aS'2011-08-13'
p228
aS'2011-08-14'
p229
aS'2011-08-18'
p230
aS'2011-08-19'
p231
aS'2011-08-20'
p232
aS'2011-08-21'
p233
aS'2011-08-23'
p234
aS'2011-08-24'
p235
aS'2011-08-25'
p236
aS'2011-08-26'
p237
aS'2011-08-27'
p238
aS'2011-08-28'
p239
aS'2011-08-30'
p240
aS'2011-09-02'
p241
aS'2011-09-03'
p242
aS'2011-09-04'
p243
aS'2011-09-06'
p244
aS'2011-09-07'
p245
aS'2011-09-08'
p246
aS'2011-09-09'
p247
aS'2011-09-10'
p248
aS'2011-09-11'
p249
aS'2011-09-13'
p250
aS'2011-09-14'
p251
aS'2011-09-15'
p252
aS'2011-09-16'
p253
aS'2011-09-17'
p254
aS'2011-09-18'
p255
aS'2011-09-22'
p256
aS'2011-09-23'
p257
aS'2011-09-24'
p258
aS'2011-09-25'
p259
aS'2011-09-28'
p260
aS'2011-09-30'
p261
aS'2011-10-01'
p262
aS'2011-10-02'
p263
aS'2011-10-04'
p264
aS'2011-10-05'
p265
aS'2011-10-06'
p266
aS'2012-04-07'
p267
aS'2012-04-08'
p268
aS'2012-04-11'
p269
aS'2012-04-12'
p270
aS'2012-04-13'
p271
aS'2012-04-14'
p272
aS'2012-04-15'
p273
aS'2012-04-17'
p274
aS'2012-04-18'
p275
aS'2012-04-19'
p276
aS'2012-04-20'
p277
aS'2012-04-22'
p278
aS'2012-04-24'
p279
aS'2012-04-26'
p280
aS'2012-04-27'
p281
aS'2012-04-28'
p282
aS'2012-04-29'
p283
aS'2012-05-01'
p284
aS'2012-05-02'
p285
aS'2012-05-03'
p286
aS'2012-05-04'
p287
aS'2012-05-05'
p288
aS'2012-05-06'
p289
aS'2012-05-08'
p290
aS'2012-05-09'
p291
aS'2012-05-10'
p292
aS'2012-05-11'
p293
aS'2012-05-12'
p294
aS'2012-05-13'
p295
aS'2012-05-15'
p296
aS'2012-05-16'
p297
aS'2012-05-17'
p298
aS'2012-05-18'
p299
aS'2012-05-19'
p300
aS'2012-05-20'
p301
aS'2012-05-22'
p302
aS'2012-05-23'
p303
aS'2012-05-24'
p304
aS'2012-05-25'
p305
aS'2012-05-26'
p306
aS'2012-05-27'
p307
aS'2012-05-29'
p308
aS'2012-05-30'
p309
aS'2012-05-31'
p310
aS'2012-06-01'
p311
aS'2012-06-02'
p312
aS'2012-06-03'
p313
aS'2012-06-05'
p314
aS'2012-06-06'
p315
aS'2012-06-07'
p316
aS'2012-06-09'
p317
aS'2012-06-10'
p318
aS'2012-06-12'
p319
aS'2012-06-13'
p320
aS'2012-06-14'
p321
aS'2012-06-15'
p322
aS'2012-06-16'
p323
aS'2012-06-17'
p324
aS'2012-06-19'
p325
aS'2012-06-20'
p326
aS'2012-06-21'
p327
aS'2012-06-22'
p328
aS'2012-06-23'
p329
aS'2012-06-24'
p330
aS'2012-06-26'
p331
aS'2012-06-27'
p332
aS'2012-06-28'
p333
aS'2012-06-29'
p334
aS'2012-07-01'
p335
aS'2012-07-03'
p336
aS'2012-07-04'
p337
aS'2012-07-07'
p338
aS'2012-07-08'
p339
aS'2012-07-10'
p340
aS'2012-07-11'
p341
aS'2012-07-12'
p342
aS'2012-07-13'
p343
aS'2012-07-18'
p344
aS'2012-07-19'
p345
aS'2012-07-24'
p346
aS'2012-07-25'
p347
aS'2012-07-26'
p348
aS'2012-07-27'
p349
aS'2012-07-28'
p350
aS'2012-07-29'
p351
aS'2012-07-31'
p352
aS'2012-08-01'
p353
aS'2012-08-02'
p354
aS'2012-08-03'
p355
aS'2012-08-04'
p356
aS'2012-08-05'
p357
aS'2012-08-07'
p358
aS'2012-08-08'
p359
aS'2012-08-09'
p360
aS'2012-08-10'
p361
aS'2012-08-11'
p362
aS'2012-08-14'
p363
aS'2012-08-15'
p364
aS'2012-08-17'
p365
aS'2012-08-18'
p366
aS'2012-08-19'
p367
aS'2012-08-22'
p368
aS'2012-08-23'
p369
aS'2012-08-25'
p370
aS'2012-08-26'
p371
aS'2012-08-29'
p372
aS'2012-08-31'
p373
aS'2012-09-01'
p374
aS'2012-09-02'
p375
aS'2012-09-05'
p376
aS'2012-09-06'
p377
aS'2012-09-07'
p378
aS'2012-09-08'
p379
aS'2012-09-10'
p380
aS'2012-09-11'
p381
aS'2012-09-12'
p382
aS'2012-09-14'
p383
aS'2012-09-15'
p384
aS'2012-09-16'
p385
aS'2012-09-18'
p386
aS'2012-09-19'
p387
aS'2012-09-20'
p388
aS'2012-09-21'
p389
aS'2012-09-24'
p390
aS'2012-09-25'
p391
aS'2012-09-26'
p392
aS'2012-09-27'
p393
aS'2012-09-28'
p394
aS'2012-09-29'
p395
aS'2012-10-01'
p396
aS'2012-10-02'
p397
aS'2012-10-03'
p398
aS'2012-10-04'
p399
aS'2013-04-02'
p400
aS'2013-04-03'
p401
aS'2013-04-04'
p402
aS'2013-04-05'
p403
aS'2013-04-07'
p404
aS'2013-04-09'
p405
aS'2013-04-10'
p406
aS'2013-04-11'
p407
aS'2013-04-12'
p408
aS'2013-04-13'
p409
aS'2013-04-14'
p410
aS'2013-04-16'
p411
aS'2013-04-17'
p412
aS'2013-04-18'
p413
aS'2013-04-19'
p414
aS'2013-04-21'
p415
aS'2013-04-26'
p416
aS'2013-04-27'
p417
aS'2013-04-28'
p418
aS'2013-04-30'
p419
aS'2013-05-01'
p420
aS'2013-05-02'
p421
aS'2013-05-03'
p422
aS'2013-05-04'
p423
aS'2013-05-05'
p424
aS'2013-05-07'
p425
aS'2013-05-08'
p426
aS'2013-05-09'
p427
aS'2013-05-14'
p428
aS'2013-05-15'
p429
aS'2013-05-16'
p430
aS'2013-05-17'
p431
aS'2013-05-18'
p432
aS'2013-05-19'
p433
aS'2013-05-21'
p434
aS'2013-05-22'
p435
aS'2013-05-23'
p436
aS'2013-05-24'
p437
aS'2013-05-25'
p438
aS'2013-05-26'
p439
aS'2013-05-28'
p440
aS'2013-05-29'
p441
aS'2013-05-30'
p442
aS'2013-05-31'
p443
aS'2013-06-01'
p444
aS'2013-06-02'
p445
aS'2013-06-07'
p446
aS'2013-06-08'
p447
aS'2013-06-09'
p448
aS'2013-06-11'
p449
aS'2013-06-13'
p450
aS'2013-06-14'
p451
aS'2013-06-15'
p452
aS'2013-06-16'
p453
aS'2013-06-19'
p454
aS'2013-06-20'
p455
aS'2013-06-21'
p456
aS'2013-06-22'
p457
aS'2013-06-23'
p458
aS'2013-06-26'
p459
aS'2013-06-28'
p460
aS'2013-06-29'
p461
aS'2013-06-30'
p462
aS'2013-07-03'
p463
aS'2013-07-06'
p464
aS'2013-07-09'
p465
aS'2013-07-10'
p466
aS'2013-07-11'
p467
aS'2013-07-12'
p468
aS'2013-07-13'
p469
aS'2013-07-16'
p470
aS'2013-07-17'
p471
aS'2013-07-23'
p472
aS'2013-07-24'
p473
aS'2013-07-25'
p474
aS'2013-07-30'
p475
aS'2013-07-31'
p476
aS'2013-08-01'
p477
aS'2013-08-02'
p478
aS'2013-08-03'
p479
aS'2013-08-07'
p480
aS'2013-08-08'
p481
aS'2013-08-09'
p482
aS'2013-08-10'
p483
aS'2013-08-11'
p484
aS'2013-08-13'
p485
aS'2013-08-14'
p486
aS'2013-08-15'
p487
aS'2013-08-16'
p488
aS'2013-08-20'
p489
aS'2013-08-21'
p490
aS'2013-08-22'
p491
aS'2013-08-24'
p492
aS'2013-08-25'
p493
aS'2013-08-27'
p494
aS'2013-08-28'
p495
aS'2013-08-29'
p496
aS'2013-08-30'
p497
aS'2013-08-31'
p498
aS'2013-09-01'
p499
aS'2013-09-03'
p500
aS'2013-09-04'
p501
aS'2013-09-05'
p502
aS'2013-09-06'
p503
aS'2013-09-07'
p504
aS'2013-09-08'
p505
aS'2013-09-12'
p506
aS'2013-09-13'
p507
aS'2013-09-14'
p508
aS'2013-09-15'
p509
aS'2013-09-16'
p510
aS'2013-09-17'
p511
aS'2013-09-18'
p512
aS'2013-09-20'
p513
aS'2013-09-21'
p514
aS'2013-09-22'
p515
aS'2013-09-23'
p516
aS'2013-09-25'
p517
aS'2013-09-27'
p518
aS'2013-09-28'
p519
aS'2013-09-29'
p520
aS'2013-09-30'
p521
aS'2013-10-01'
p522
aS'2013-10-02'
p523
aS'2013-10-03'
p524
aS'2013-10-05'
p525
aS'2014-03-30'
p526
aS'2014-03-31'
p527
aS'2014-04-01'
p528
aS'2014-04-02'
p529
aS'2014-04-04'
p530
aS'2014-04-05'
p531
aS'2014-04-06'
p532
aS'2014-04-08'
p533
aS'2014-04-09'
p534
aS'2014-04-10'
p535
aS'2014-04-11'
p536
aS'2014-04-12'
p537
aS'2014-04-13'
p538
aS'2014-04-15'
p539
aS'2014-04-16'
p540
aS'2014-04-18'
p541
aS'2014-04-19'
p542
aS'2014-04-20'
p543
aS'2014-04-22'
p544
aS'2014-04-23'
p545
aS'2014-04-24'
p546
aS'2014-04-30'
p547
aS'2014-05-01'
p548
aS'2014-05-06'
p549
aS'2014-05-07'
p550
aS'2014-05-08'
p551
aS'2014-05-09'
p552
aS'2014-05-10'
p553
aS'2014-05-11'
p554
aS'2014-05-13'
p555
aS'2014-05-14'
p556
aS'2014-05-15'
p557
aS'2014-05-16'
p558
aS'2014-05-17'
p559
aS'2014-05-18'
p560
aS'2014-05-20'
p561
aS'2014-05-21'
p562
aS'2014-05-22'
p563
aS'2014-05-23'
p564
aS'2014-05-24'
p565
aS'2014-05-25'
p566
aS'2014-05-27'
p567
aS'2014-05-28'
p568
aS'2014-05-29'
p569
aS'2014-05-30'
p570
aS'2014-05-31'
p571
aS'2014-06-01'
p572
aS'2014-06-05'
p573
aS'2014-06-06'
p574
aS'2014-06-07'
p575
aS'2014-06-08'
p576
aS'2014-06-10'
p577
aS'2014-06-11'
p578
aS'2014-06-12'
p579
aS'2014-06-13'
p580
aS'2014-06-14'
p581
aS'2014-06-15'
p582
aS'2014-06-21'
p583
aS'2014-06-22'
p584
aS'2014-06-23'
p585
aS'2014-06-24'
p586
aS'2014-06-25'
p587
aS'2014-06-26'
p588
aS'2014-06-27'
p589
aS'2014-06-28'
p590
aS'2014-06-29'
p591
aS'2014-07-01'
p592
aS'2014-07-02'
p593
aS'2014-07-03'
p594
aS'2014-07-08'
p595
aS'2014-07-09'
p596
aS'2014-07-10'
p597
aS'2014-07-11'
p598
aS'2014-07-12'
p599
aS'2014-07-13'
p600
aS'2014-07-15'
p601
aS'2014-07-16'
p602
aS'2014-07-22'
p603
aS'2014-07-23'
p604
aS'2014-07-24'
p605
aS'2014-07-25'
p606
aS'2014-07-26'
p607
aS'2014-07-27'
p608
aS'2014-07-29'
p609
aS'2014-07-30'
p610
aS'2014-07-31'
p611
aS'2014-08-01'
p612
aS'2014-08-03'
p613
aS'2014-08-05'
p614
aS'2014-08-06'
p615
aS'2014-08-09'
p616
aS'2014-08-11'
p617
aS'2014-08-12'
p618
aS'2014-08-14'
p619
aS'2014-08-15'
p620
aS'2014-08-16'
p621
aS'2014-08-17'
p622
aS'2014-08-19'
p623
aS'2014-08-22'
p624
aS'2014-08-23'
p625
aS'2014-08-25'
p626
aS'2014-08-26'
p627
aS'2014-08-27'
p628
aS'2014-08-28'
p629
aS'2014-08-29'
p630
aS'2014-09-02'
p631
aS'2014-09-04'
p632
aS'2014-09-05'
p633
aS'2014-09-06'
p634
aS'2014-09-07'
p635
aS'2014-09-09'
p636
aS'2014-09-10'
p637
aS'2014-09-11'
p638
aS'2014-09-12'
p639
aS'2014-09-13'
p640
aS'2014-09-14'
p641
aS'2014-10-01'
p642
aS'2014-10-02'
p643
aS'2014-10-03'
p644
aS'2014-10-05'
p645
aS'2014-10-06'
p646
aS'2014-10-07'
p647
aS'2014-10-09'
p648
aS'2014-10-10'
p649
aS'2014-10-11'
p650
aS'2014-10-12'
p651
aS'2014-10-13'
p652
aS'2014-10-17'
p653
aS'2015-03-28'
p654
aS'2015-03-29'
p655
aS'2015-04-01'
p656
aS'2015-04-02'
p657
aS'2015-04-03'
p658
aS'2015-04-05'
p659
aS'2015-04-07'
p660
aS'2015-04-08'
p661
aS'2015-04-09'
p662
aS'2015-04-10'
p663
aS'2015-04-11'
p664
aS'2015-04-12'
p665
aS'2015-04-14'
p666
aS'2015-04-15'
p667
aS'2015-04-17'
p668
aS'2015-04-18'
p669
aS'2015-04-21'
p670
aS'2015-04-22'
p671
aS'2015-04-23'
p672
aS'2015-04-24'
p673
aS'2015-04-25'
p674
aS'2015-04-26'
p675
aS'2015-04-29'
p676
aS'2015-04-30'
p677
aS'2015-05-01'
p678
aS'2015-05-02'
p679
aS'2015-05-03'
p680
aS'2015-05-05'
p681
aS'2015-05-06'
p682
aS'2015-05-07'
p683
aS'2015-05-08'
p684
aS'2015-05-09'
p685
aS'2015-05-10'
p686
aS'2015-05-12'
p687
aS'2015-05-13'
p688
aS'2015-05-14'
p689
aS'2015-05-15'
p690
aS'2015-05-16'
p691
aS'2015-05-17'
p692
aS'2015-05-19'
p693
aS'2015-05-20'
p694
aS'2015-05-21'
p695
aS'2015-05-22'
p696
aS'2015-05-23'
p697
aS'2015-05-24'
p698
aS'2015-05-26'
p699
aS'2015-05-27'
p700
aS'2015-05-28'
p701
aS'2015-05-29'
p702
aS'2015-05-30'
p703
aS'2015-05-31'
p704
aS'2015-06-02'
p705
aS'2015-06-03'
p706
aS'2015-06-04'
p707
aS'2015-06-05'
p708
aS'2015-06-06'
p709
aS'2015-06-07'
p710
aS'2015-06-09'
p711
aS'2015-06-10'
p712
aS'2015-06-11'
p713
aS'2015-06-12'
p714
aS'2015-06-13'
p715
aS'2015-06-14'
p716
aS'2015-06-16'
p717
aS'2015-06-17'
p718
aS'2015-06-18'
p719
aS'2015-06-19'
p720
aS'2015-06-20'
p721
aS'2015-06-21'
p722
aS'2015-06-23'
p723
aS'2015-06-26'
p724
aS'2015-06-27'
p725
aS'2015-06-28'
p726
aS'2015-07-01'
p727
aS'2015-07-02'
p728
aS'2015-07-03'
p729
aS'2015-07-04'
p730
aS'2015-07-08'
p731
aS'2015-07-09'
p732
aS'2015-07-10'
p733
aS'2015-07-11'
p734
aS'2015-07-14'
p735
aS'2015-07-15'
p736
aS'2015-07-16'
p737
aS'2015-07-21'
p738
aS'2015-07-22'
p739
aS'2015-07-24'
p740
aS'2015-07-25'
p741
aS'2015-07-26'
p742
aS'2015-07-28'
p743
aS'2015-07-29'
p744
aS'2015-07-30'
p745
aS'2015-07-31'
p746
aS'2015-08-01'
p747
aS'2015-08-02'
p748
aS'2015-08-04'
p749
aS'2015-08-05'
p750
aS'2015-08-06'
p751
aS'2015-08-07'
p752
aS'2015-08-08'
p753
aS'2015-08-09'
p754
aS'2015-08-11'
p755
aS'2015-08-12'
p756
aS'2015-08-13'
p757
aS'2015-08-14'
p758
aS'2015-08-15'
p759
aS'2015-08-16'
p760
aS'2015-08-18'
p761
aS'2015-08-19'
p762
aS'2015-08-20'
p763
aS'2015-08-21'
p764
aS'2015-08-22'
p765
aS'2015-08-23'
p766
aS'2015-08-26'
p767
aS'2015-08-27'
p768
aS'2015-08-28'
p769
aS'2015-08-29'
p770
aS'2015-08-30'
p771
aS'2015-09-01'
p772
aS'2015-09-02'
p773
aS'2015-09-03'
p774
aS'2015-09-04'
p775
aS'2015-09-05'
p776
aS'2015-09-06'
p777
aS'2015-09-08'
p778
aS'2015-09-09'
p779
aS'2015-09-10'
p780
aS'2015-09-11'
p781
aS'2015-09-12'
p782
aS'2015-09-13'
p783
aS'2015-09-15'
p784
aS'2015-09-16'
p785
aS'2015-09-17'
p786
aS'2015-09-18'
p787
aS'2015-09-19'
p788
aS'2015-09-20'
p789
aS'2015-09-25'
p790
aS'2015-09-26'
p791
aS'2015-09-28'
p792
aS'2015-09-29'
p793
aS'2015-09-30'
p794
aS'2015-10-01'
p795
aS'2015-10-02'
p796
aS'2015-10-03'
p797
aS'2016-04-01'
p798
aS'2016-04-02'
p799
aS'2016-04-05'
p800
aS'2016-04-06'
p801
aS'2016-04-07'
p802
aS'2016-04-08'
p803
aS'2016-04-09'
p804
aS'2016-04-10'
p805
aS'2016-04-12'
p806
aS'2016-04-13'
p807
aS'2016-04-14'
p808
aS'2016-04-15'
p809
aS'2016-04-17'
p810
aS'2016-04-19'
p811
aS'2016-04-20'
p812
aS'2016-04-21'
p813
aS'2016-04-22'
p814
aS'2016-04-23'
p815
aS'2016-04-24'
p816
aS'2016-04-26'
p817
aS'2016-04-28'
p818
aS'2016-04-29'
p819
aS'2016-04-30'
p820
aS'2016-05-01'
p821
aS'2016-05-03'
p822
aS'2016-05-04'
p823
aS'2016-05-05'
p824
aS'2016-05-06'
p825
aS'2016-05-07'
p826
aS'2016-05-08'
p827
aS'2016-05-11'
p828
aS'2016-05-12'
p829
aS'2016-05-13'
p830
aS'2016-05-14'
p831
aS'2016-05-15'
p832
aS'2016-05-17'
p833
aS'2016-05-18'
p834
aS'2016-05-19'
p835
aS'2016-05-20'
p836
aS'2016-05-21'
p837
aS'2016-05-22'
p838
aS'2016-05-24'
p839
aS'2016-05-25'
p840
aS'2016-05-26'
p841
aS'2016-05-27'
p842
aS'2016-05-28'
p843
aS'2016-05-29'
p844
aS'2016-05-31'
p845
aS'2016-06-01'
p846
aS'2016-06-02'
p847
aS'2016-06-03'
p848
aS'2016-06-04'
p849
aS'2016-06-05'
p850
aS'2016-06-07'
p851
aS'2016-06-08'
p852
aS'2016-06-09'
p853
aS'2016-06-10'
p854
aS'2016-06-11'
p855
aS'2016-06-12'
p856
aS'2016-06-14'
p857
aS'2016-06-16'
p858
aS'2016-06-17'
p859
aS'2016-06-18'
p860
aS'2016-06-19'
p861
aS'2016-06-21'
p862
aS'2016-06-23'
p863
aS'2016-06-24'
p864
aS'2016-06-25'
p865
aS'2016-06-26'
p866
aS'2016-06-28'
p867
aS'2016-06-29'
p868
aS'2016-06-30'
p869
aS'2016-07-02'
p870
aS'2016-07-06'
p871
aS'2016-07-07'
p872
aS'2016-07-08'
p873
aS'2016-07-09'
p874
aS'2016-07-10'
p875
aS'2016-07-12'
p876
aS'2016-07-13'
p877
aS'2016-07-14'
p878
aS'2016-07-19'
p879
aS'2016-07-20'
p880
aS'2016-07-21'
p881
aS'2016-07-22'
p882
aS'2016-07-23'
p883
aS'2016-07-24'
p884
aS'2016-07-26'
p885
aS'2016-07-27'
p886
aS'2016-07-28'
p887
aS'2016-07-29'
p888
aS'2016-07-30'
p889
aS'2016-07-31'
p890
aS'2016-08-02'
p891
aS'2016-08-03'
p892
aS'2016-08-04'
p893
aS'2016-08-05'
p894
aS'2016-08-06'
p895
aS'2016-08-07'
p896
aS'2016-08-09'
p897
aS'2016-08-10'
p898
aS'2016-08-11'
p899
aS'2016-08-12'
p900
aS'2016-08-13'
p901
aS'2016-08-14'
p902
aS'2016-08-16'
p903
aS'2016-08-17'
p904
aS'2016-08-18'
p905
aS'2016-08-19'
p906
aS'2016-08-20'
p907
aS'2016-08-21'
p908
aS'2016-08-24'
p909
aS'2016-08-25'
p910
aS'2016-08-26'
p911
aS'2016-08-27'
p912
aS'2016-08-28'
p913
aS'2016-08-30'
p914
aS'2016-09-01'
p915
aS'2016-09-02'
p916
aS'2016-09-03'
p917
aS'2016-09-04'
p918
aS'2016-09-06'
p919
aS'2016-09-07'
p920
aS'2016-09-08'
p921
aS'2016-09-09'
p922
aS'2016-09-10'
p923
aS'2016-09-11'
p924
aS'2016-09-13'
p925
aS'2016-09-14'
p926
aS'2016-09-15'
p927
aS'2016-09-16'
p928
aS'2016-09-18'
p929
aS'2016-09-19'
p930
aS'2016-09-20'
p931
aS'2016-09-22'
p932
aS'2016-09-24'
p933
aS'2016-09-25'
p934
aS'2016-09-27'
p935
aS'2016-09-28'
p936
aS'2016-09-30'
p937
aS'2016-10-02'
p938
aS'2016-10-03'
p939
aS'2016-10-05'
p940
aS'2016-10-08'
p941
a.